; Function Attrs: mustprogress uwtable
define hidden void @_ZN2cv3ccm5ColorC2ENS_3MatENS0_11COLOR_SPACEE(ptr noundef nonnull align 8 dereferenceable(352) %0, ptr noundef nonnull %1, i32 noundef %2) unnamed_addr #0 align 2 personality ptr @__gxx_personality_v0 {
  %4 = alloca %"class.std::shared_ptr", align 8
  store ptr getelementptr inbounds inrange(-16, 16) (i8, ptr @_ZTVN2cv3ccm5ColorE, i64 16), ptr %0, align 8
  %5 = getelementptr inbounds i8, ptr %0, i64 8
  tail call void @_ZN2cv3MatC1ERKS0_(ptr noundef nonnull align 8 dereferenceable(96) %5, ptr noundef nonnull align 8 dereferenceable(96) %1)
  %6 = invoke noundef nonnull align 8 dereferenceable(48) ptr @_ZN2cv3ccm5GetCS11getInstanceEv()
          to label %7 unwind label %54

7:                                                ; preds = %3
  invoke void @_ZN2cv3ccm5GetCS6get_csENS0_11COLOR_SPACEE(ptr dead_on_unwind nonnull writable sret(%"class.std::shared_ptr") align 8 %4, ptr noundef nonnull align 8 dereferenceable(48) %6, i32 noundef %2)
          to label %8 unwind label %54

8:                                                ; preds = %7
  %9 = load ptr, ptr %4, align 8
  %10 = getelementptr inbounds i8, ptr %4, i64 8
  %11 = load ptr, ptr %10, align 8
  %.not.i.i.i = icmp eq ptr %11, null
  br i1 %.not.i.i.i, label %_ZNSt10shared_ptrIN2cv3ccm10ColorSpaceEED2Ev.exit, label %12

12:                                               ; preds = %8
  %13 = getelementptr inbounds i8, ptr %11, i64 8
  %14 = load atomic i64, ptr %13 acquire, align 8
  %15 = icmp eq i64 %14, 4294967297
  %16 = trunc i64 %14 to i32
  br i1 %15, label %17, label %22

17:                                               ; preds = %12
  store i32 0, ptr %13, align 8
  %18 = getelementptr inbounds i8, ptr %11, i64 12
  store i32 0, ptr %18, align 4
  %19 = load ptr, ptr %11, align 8
  %20 = getelementptr inbounds i8, ptr %19, i64 16
  %21 = load ptr, ptr %20, align 8
  call void %21(ptr noundef nonnull align 8 dereferenceable(16) %11) #14
  br label %_ZNSt16_Sp_counted_baseILN9__gnu_cxx12_Lock_policyE2EE24_M_release_last_use_coldEv.exit.sink.split.i.i.i.i

22:                                               ; preds = %12
  %23 = load i8, ptr @__libc_single_threaded, align 1
  %.not.i.i.i.i = icmp eq i8 %23, 0
  br i1 %.not.i.i.i.i, label %26, label %24

24:                                               ; preds = %22
  %25 = add nsw i32 %16, -1
  store i32 %25, ptr %13, align 4
  br label %28

26:                                               ; preds = %22
  %27 = atomicrmw volatile add ptr %13, i32 -1 acq_rel, align 4
  br label %28

28:                                               ; preds = %26, %24
  %.0.i.i.i.i = phi i32 [ %16, %24 ], [ %27, %26 ]
  %29 = icmp eq i32 %.0.i.i.i.i, 1
  br i1 %29, label %30, label %_ZNSt10shared_ptrIN2cv3ccm10ColorSpaceEED2Ev.exit

30:                                               ; preds = %28
  %31 = load ptr, ptr %11, align 8
  %32 = getelementptr inbounds i8, ptr %31, i64 16
  %33 = load ptr, ptr %32, align 8
  call void %33(ptr noundef nonnull align 8 dereferenceable(16) %11) #14
  %34 = getelementptr inbounds i8, ptr %11, i64 12
  %35 = load i8, ptr @__libc_single_threaded, align 1
  %.not.i.i.i.i.i.i = icmp eq i8 %35, 0
  br i1 %.not.i.i.i.i.i.i, label %39, label %36

36:                                               ; preds = %30
  %37 = load i32, ptr %34, align 4
  %38 = add nsw i32 %37, -1
  store i32 %38, ptr %34, align 4
  br label %41

39:                                               ; preds = %30
  %40 = atomicrmw volatile add ptr %34, i32 -1 acq_rel, align 4
  br label %41

41:                                               ; preds = %39, %36
  %.0.i.i.i.i.i.i = phi i32 [ %37, %36 ], [ %40, %39 ]
  %42 = icmp eq i32 %.0.i.i.i.i.i.i, 1
  br i1 %42, label %_ZNSt16_Sp_counted_baseILN9__gnu_cxx12_Lock_policyE2EE24_M_release_last_use_coldEv.exit.sink.split.i.i.i.i, label %_ZNSt10shared_ptrIN2cv3ccm10ColorSpaceEED2Ev.exit

_ZNSt16_Sp_counted_baseILN9__gnu_cxx12_Lock_policyE2EE24_M_release_last_use_coldEv.exit.sink.split.i.i.i.i: ; preds = %41, %17
  %43 = load ptr, ptr %11, align 8
  %44 = getelementptr inbounds i8, ptr %43, i64 24
  %45 = load ptr, ptr %44, align 8
  call void %45(ptr noundef nonnull align 8 dereferenceable(16) %11) #14
  br label %_ZNSt10shared_ptrIN2cv3ccm10ColorSpaceEED2Ev.exit

_ZNSt10shared_ptrIN2cv3ccm10ColorSpaceEED2Ev.exit: ; preds = %8, %28, %41, %_ZNSt16_Sp_counted_baseILN9__gnu_cxx12_Lock_policyE2EE24_M_release_last_use_coldEv.exit.sink.split.i.i.i.i
  %46 = getelementptr inbounds i8, ptr %0, i64 104
  store ptr %9, ptr %46, align 8
  %47 = getelementptr inbounds i8, ptr %0, i64 112
  call void @_ZN2cv3MatC1Ev(ptr noundef nonnull align 8 dereferenceable(96) %47) #14
  %48 = getelementptr inbounds i8, ptr %0, i64 208
  call void @_ZN2cv3MatC1Ev(ptr noundef nonnull align 8 dereferenceable(96) %48) #14
  %49 = getelementptr inbounds i8, ptr %0, i64 312
  store i32 0, ptr %49, align 8
  %50 = getelementptr inbounds i8, ptr %0, i64 320
  store ptr null, ptr %50, align 8
  %51 = getelementptr inbounds i8, ptr %0, i64 328
  store ptr %49, ptr %51, align 8
  %52 = getelementptr inbounds i8, ptr %0, i64 336
  store ptr %49, ptr %52, align 8
  %53 = getelementptr inbounds i8, ptr %0, i64 344
  store i64 0, ptr %53, align 8
  ret void

54:                                               ; preds = %7, %3
  %55 = landingpad { ptr, i32 }
          cleanup
  call void @_ZN2cv3MatD1Ev(ptr noundef nonnull align 8 dereferenceable(96) %5) #14
  resume { ptr, i32 } %55
}